target datalayout = "e-m:e-p270:32:32-p271:32:32-p272:64:64-i64:64-i128:128-f80:128-n8:16:32:64-S128"
target triple = "x86_64-pc-linux-gnu"

%struct.darktable_t = type { %struct.dt_codepath_t, i32, i32, ptr, ptr, ptr, ptr, ptr, ptr, ptr, ptr, ptr, ptr, ptr, ptr, ptr, ptr, ptr, ptr, ptr, ptr, ptr, ptr, ptr, ptr, ptr, ptr, ptr, ptr, ptr, [64 x %struct.dt_pthread_mutex_t], %struct.dt_pthread_mutex_t, %struct.dt_pthread_mutex_t, %struct.dt_pthread_mutex_t, %struct.dt_pthread_mutex_t, %struct.dt_pthread_mutex_t, ptr, ptr, ptr, ptr, ptr, ptr, ptr, ptr, ptr, ptr, ptr, ptr, ptr, %struct.dt_lua_state_t, ptr, double, ptr, i32, [47 x i32], i32, i32, ptr, ptr, %struct.dt_sys_resources_t, %struct.dt_backthumb_t, %struct.dt_gimp_t }
%struct.dt_codepath_t = type { i8, [3 x i8] }
%struct.dt_pthread_mutex_t = type { %union.pthread_mutex_t }
%union.pthread_mutex_t = type { %struct.__pthread_mutex_s }
%struct.__pthread_mutex_s = type { i32, i32, i32, i32, i32, i16, i16, %struct.__pthread_internal_list }
%struct.__pthread_internal_list = type { ptr, ptr }
%struct.dt_lua_state_t = type { i32 }
%struct.dt_sys_resources_t = type { i64, i64, ptr, ptr, i32 }
%struct.dt_backthumb_t = type { double, double, i32, i32, i32, i32 }
%struct.dt_gimp_t = type { i32, ptr, ptr, i32, i32 }
%struct.dt_view_manager_t = type { ptr, ptr, ptr, %struct.dt_history_copy_item_t, %struct.anon, %struct.dt_act_on_cache_t, %struct.dt_act_on_cache_t, %struct.anon.0, %struct.anon.1, ptr, ptr, ptr, ptr, ptr, %struct.anon.2 }
%struct.dt_history_copy_item_t = type { ptr, ptr, i32, i32, i32 }
%struct.anon = type { ptr, ptr, ptr, i32, i32 }
%struct.dt_act_on_cache_t = type { ptr, i32, i32, i32, i32, ptr, i32, i32 }
%struct.anon.0 = type { ptr, ptr, ptr, ptr, ptr, ptr }
%struct.anon.1 = type { i32, i32, i32 }
%struct.anon.2 = type { %struct.anon.3, %struct.anon.4, %struct.anon.5, %struct.anon.6, %struct.anon.7, %struct.anon.8, %struct.anon.9, %struct.anon.10, %struct.anon.11, %struct.anon.12, %struct.anon.13, %struct.anon.14 }
%struct.anon.3 = type { ptr, ptr }
%struct.anon.4 = type { ptr, ptr }
%struct.anon.5 = type { ptr, ptr, ptr, ptr }
%struct.anon.6 = type { ptr, ptr }
%struct.anon.7 = type { ptr }
%struct.anon.8 = type { ptr, ptr, ptr, ptr, ptr }
%struct.anon.9 = type { ptr }
%struct.anon.10 = type { ptr, ptr }
%struct.anon.11 = type { ptr, ptr, ptr, ptr, ptr, ptr, ptr, ptr, ptr, ptr, ptr, ptr }
%struct.anon.12 = type { ptr, ptr, ptr, ptr }
%struct.anon.13 = type { ptr }
%struct.anon.14 = type { ptr, ptr }
%struct.dt_gui_gtk_t = type { ptr, %struct.dt_gui_widgets_t, %struct.dt_gui_scrollbars_t, i32, ptr, i32, [39 x %struct._GdkRGBA], i32, i32, i32, i32, i32, double, double, double, double, ptr, double, double, double, double, i32, i32, [4096 x i8], i32, i32, i32, %struct.dt_pthread_mutex_t }
%struct.dt_gui_widgets_t = type { ptr, ptr, ptr, ptr, i32, i32, i32 }
%struct.dt_gui_scrollbars_t = type { ptr, ptr, i32 }
%struct._GdkRGBA = type { double, double, double, double }
%struct.dt_thumbtable_t = type { i32, i32, i32, i32, ptr, ptr, i32, i32, i32, i32, i32, i32, i32, i32, %struct._cairo_rectangle_int, %struct._PangoRectangle, i32, i32, i32, i32, i32, i32, ptr, i32, i32, i32, ptr, i32, i32, i32, i32, i32, i32, float, i32, i32 }
%struct._cairo_rectangle_int = type { i32, i32, i32, i32 }
%struct._PangoRectangle = type { i32, i32, i32, i32 }
%struct._GSList = type { ptr, ptr }

@darktable = external global %struct.darktable_t, align 8

; Function Attrs: inlinehint nounwind uwtable
define internal i32 @dt_slist_length_equal(ptr noundef %0, ptr noundef %1) #5 {
  %3 = alloca ptr, align 8
  %4 = alloca ptr, align 8
  store ptr %0, ptr %3, align 8, !tbaa !96
  store ptr %1, ptr %4, align 8, !tbaa !96
  br label %5

5:                                                ; preds = %30, %2
  %6 = load ptr, ptr %3, align 8, !tbaa !96
  %7 = icmp ne ptr %6, null
  br i1 %7, label %8, label %11

8:                                                ; preds = %5
  %9 = load ptr, ptr %4, align 8, !tbaa !96
  %10 = icmp ne ptr %9, null
  br label %11

11:                                               ; preds = %8, %5
  %12 = phi i1 [ false, %5 ], [ %10, %8 ]
  br i1 %12, label %13, label %32

13:                                               ; preds = %11
  %14 = load ptr, ptr %3, align 8, !tbaa !96
  %15 = icmp ne ptr %14, null
  br i1 %15, label %16, label %20

16:                                               ; preds = %13
  %17 = load ptr, ptr %3, align 8, !tbaa !96
  %18 = getelementptr inbounds nuw %struct._GSList, ptr %17, i32 0, i32 1
  %19 = load ptr, ptr %18, align 8, !tbaa !99
  br label %21

20:                                               ; preds = %13
  br label %21

21:                                               ; preds = %20, %16
  %22 = phi ptr [ %19, %16 ], [ null, %20 ]
  store ptr %22, ptr %3, align 8, !tbaa !96
  %23 = load ptr, ptr %4, align 8, !tbaa !96
  %24 = icmp ne ptr %23, null
  br i1 %24, label %25, label %29

25:                                               ; preds = %21
  %26 = load ptr, ptr %4, align 8, !tbaa !96
  %27 = getelementptr inbounds nuw %struct._GSList, ptr %26, i32 0, i32 1
  %28 = load ptr, ptr %27, align 8, !tbaa !99
  br label %30

29:                                               ; preds = %21
  br label %30

30:                                               ; preds = %29, %25
  %31 = phi ptr [ %28, %25 ], [ null, %29 ]
  store ptr %31, ptr %4, align 8, !tbaa !96
  br label %5

32:                                               ; preds = %11
  %33 = load ptr, ptr %3, align 8, !tbaa !96
  %34 = icmp ne ptr %33, null
  br i1 %34, label %39, label %35

35:                                               ; preds = %32
  %36 = load ptr, ptr %4, align 8, !tbaa !96
  %37 = icmp ne ptr %36, null
  %38 = xor i1 %37, true
  br label %39

39:                                               ; preds = %35, %32
  %40 = phi i1 [ false, %32 ], [ %38, %35 ]
  %41 = zext i1 %40 to i32
  ret i32 %41
}

; Function Attrs: nounwind uwtable
define internal i32 @_test_cache(ptr noundef %0) #0 {
  %2 = alloca i32, align 4
  %3 = alloca ptr, align 8
  %4 = alloca i32, align 4
  %5 = alloca i32, align 4
  %6 = alloca ptr, align 8
  %7 = alloca ptr, align 8
  %8 = alloca i32, align 4
  store ptr %0, ptr %3, align 8, !tbaa !49
  call void @llvm.lifetime.start.p0(i64 4, ptr %4) #6
  %9 = call i32 (...) @dt_control_get_mouse_over_id()
  store i32 %9, ptr %4, align 4, !tbaa !6
  %10 = load ptr, ptr %3, align 8, !tbaa !49
  %11 = getelementptr inbounds nuw %struct.dt_act_on_cache_t, ptr %10, i32 0, i32 2
  %12 = load i32, ptr %11, align 4, !tbaa !75
  %13 = icmp ne i32 %12, 0
  br i1 %13, label %14, label %109

14:                                               ; preds = %1
  %15 = load ptr, ptr %3, align 8, !tbaa !49
  %16 = getelementptr inbounds nuw %struct.dt_act_on_cache_t, ptr %15, i32 0, i32 3
  %17 = load i32, ptr %16, align 8, !tbaa !100
  %18 = load i32, ptr %4, align 4, !tbaa !6
  %19 = icmp eq i32 %17, %18
  br i1 %19, label %20, label %109

20:                                               ; preds = %14
  %21 = load ptr, ptr %3, align 8, !tbaa !49
  %22 = getelementptr inbounds nuw %struct.dt_act_on_cache_t, ptr %21, i32 0, i32 4
  %23 = load i32, ptr %22, align 4, !tbaa !77
  %24 = load ptr, ptr getelementptr inbounds nuw (%struct.darktable_t, ptr @darktable, i32 0, i32 14), align 8, !tbaa !55
  %25 = getelementptr inbounds nuw %struct.dt_gui_gtk_t, ptr %24, i32 0, i32 0
  %26 = load ptr, ptr %25, align 8, !tbaa !56
  %27 = call ptr @dt_ui_thumbtable(ptr noundef %26)
  %28 = getelementptr inbounds nuw %struct.dt_thumbtable_t, ptr %27, i32 0, i32 24
  %29 = load i32, ptr %28, align 4, !tbaa !62
  %30 = icmp eq i32 %23, %29
  br i1 %30, label %31, label %109

31:                                               ; preds = %20
  %32 = load ptr, ptr %3, align 8, !tbaa !49
  %33 = getelementptr inbounds nuw %struct.dt_act_on_cache_t, ptr %32, i32 0, i32 5
  %34 = load ptr, ptr %33, align 8, !tbaa !103
  %35 = load ptr, ptr getelementptr inbounds nuw (%struct.darktable_t, ptr @darktable, i32 0, i32 11), align 8, !tbaa !10
  %36 = getelementptr inbounds nuw %struct.dt_view_manager_t, ptr %35, i32 0, i32 2
  %37 = load ptr, ptr %36, align 8, !tbaa !79
  %38 = call i32 @dt_slist_length_equal(ptr noundef %34, ptr noundef %37)
  %39 = icmp ne i32 %38, 0
  br i1 %39, label %40, label %109

40:                                               ; preds = %31
  call void @llvm.lifetime.start.p0(i64 4, ptr %5) #6
  store i32 1, ptr %5, align 4, !tbaa !6
  %41 = load ptr, ptr getelementptr inbounds nuw (%struct.darktable_t, ptr @darktable, i32 0, i32 14), align 8, !tbaa !55
  %42 = getelementptr inbounds nuw %struct.dt_gui_gtk_t, ptr %41, i32 0, i32 0
  %43 = load ptr, ptr %42, align 8, !tbaa !56
  %44 = call ptr @dt_ui_thumbtable(ptr noundef %43)
  %45 = getelementptr inbounds nuw %struct.dt_thumbtable_t, ptr %44, i32 0, i32 24
  %46 = load i32, ptr %45, align 4, !tbaa !62
  %47 = icmp ne i32 %46, 0
  br i1 %47, label %101, label %48

48:                                               ; preds = %40
  %49 = load ptr, ptr %3, align 8, !tbaa !49
  %50 = getelementptr inbounds nuw %struct.dt_act_on_cache_t, ptr %49, i32 0, i32 5
  %51 = load ptr, ptr %50, align 8, !tbaa !103
  %52 = icmp ne ptr %51, null
  br i1 %52, label %53, label %101

53:                                               ; preds = %48
  call void @llvm.lifetime.start.p0(i64 8, ptr %6) #6
  %54 = load ptr, ptr %3, align 8, !tbaa !49
  %55 = getelementptr inbounds nuw %struct.dt_act_on_cache_t, ptr %54, i32 0, i32 5
  %56 = load ptr, ptr %55, align 8, !tbaa !103
  store ptr %56, ptr %6, align 8, !tbaa !96
  call void @llvm.lifetime.start.p0(i64 8, ptr %7) #6
  %57 = load ptr, ptr getelementptr inbounds nuw (%struct.darktable_t, ptr @darktable, i32 0, i32 11), align 8, !tbaa !10
  %58 = getelementptr inbounds nuw %struct.dt_view_manager_t, ptr %57, i32 0, i32 2
  %59 = load ptr, ptr %58, align 8, !tbaa !79
  store ptr %59, ptr %7, align 8, !tbaa !96
  br label %60

60:                                               ; preds = %98, %53
  %61 = load ptr, ptr %6, align 8, !tbaa !96
  %62 = icmp ne ptr %61, null
  br i1 %62, label %63, label %66

63:                                               ; preds = %60
  %64 = load ptr, ptr %7, align 8, !tbaa !96
  %65 = icmp ne ptr %64, null
  br label %66

66:                                               ; preds = %63, %60
  %67 = phi i1 [ false, %60 ], [ %65, %63 ]
  br i1 %67, label %68, label %100

68:                                               ; preds = %66
  %69 = load ptr, ptr %6, align 8, !tbaa !96
  %70 = getelementptr inbounds nuw %struct._GSList, ptr %69, i32 0, i32 0
  %71 = load ptr, ptr %70, align 8, !tbaa !97
  %72 = ptrtoint ptr %71 to i64
  %73 = trunc i64 %72 to i32
  %74 = load ptr, ptr %7, align 8, !tbaa !96
  %75 = getelementptr inbounds nuw %struct._GSList, ptr %74, i32 0, i32 0
  %76 = load ptr, ptr %75, align 8, !tbaa !97
  %77 = ptrtoint ptr %76 to i64
  %78 = trunc i64 %77 to i32
  %79 = icmp ne i32 %73, %78
  br i1 %79, label %80, label %81

80:                                               ; preds = %68
  store i32 0, ptr %5, align 4, !tbaa !6
  br label %100

81:                                               ; preds = %68
  %82 = load ptr, ptr %7, align 8, !tbaa !96
  %83 = icmp ne ptr %82, null
  br i1 %83, label %84, label %88

84:                                               ; preds = %81
  %85 = load ptr, ptr %7, align 8, !tbaa !96
  %86 = getelementptr inbounds nuw %struct._GSList, ptr %85, i32 0, i32 1
  %87 = load ptr, ptr %86, align 8, !tbaa !99
  br label %89

88:                                               ; preds = %81
  br label %89

89:                                               ; preds = %88, %84
  %90 = phi ptr [ %87, %84 ], [ null, %88 ]
  store ptr %90, ptr %7, align 8, !tbaa !96
  %91 = load ptr, ptr %6, align 8, !tbaa !96
  %92 = icmp ne ptr %91, null
  br i1 %92, label %93, label %97

93:                                               ; preds = %89
  %94 = load ptr, ptr %6, align 8, !tbaa !96
  %95 = getelementptr inbounds nuw %struct._GSList, ptr %94, i32 0, i32 1
  %96 = load ptr, ptr %95, align 8, !tbaa !99
  br label %98

97:                                               ; preds = %89
  br label %98

98:                                               ; preds = %97, %93
  %99 = phi ptr [ %96, %93 ], [ null, %97 ]
  store ptr %99, ptr %6, align 8, !tbaa !96
  br label %60

100:                                              ; preds = %80, %66
  call void @llvm.lifetime.end.p0(i64 8, ptr %7) #6
  call void @llvm.lifetime.end.p0(i64 8, ptr %6) #6
  br label %101

101:                                              ; preds = %100, %48, %40
  %102 = load i32, ptr %5, align 4, !tbaa !6
  %103 = icmp ne i32 %102, 0
  br i1 %103, label %104, label %105

104:                                              ; preds = %101
  store i32 1, ptr %2, align 4
  store i32 1, ptr %8, align 4
  br label %106

105:                                              ; preds = %101
  store i32 0, ptr %8, align 4
  br label %106

106:                                              ; preds = %105, %104
  call void @llvm.lifetime.end.p0(i64 4, ptr %5) #6
  %107 = load i32, ptr %8, align 4
  switch i32 %107, label %110 [
    i32 0, label %108
  ]

108:                                              ; preds = %106
  br label %109

109:                                              ; preds = %108, %31, %20, %14, %1
  store i32 0, ptr %2, align 4
  store i32 1, ptr %8, align 4
  br label %110

110:                                              ; preds = %109, %106
  call void @llvm.lifetime.end.p0(i64 4, ptr %4) #6
  %111 = load i32, ptr %2, align 4
  ret i32 %111
}