; Function Attrs: nounwind uwtable
define internal fastcc range(i32 0, 2) i32 @_test_cache(ptr noundef readonly captures(none) %0) unnamed_addr #0 {
  %2 = tail call i32 (...) @dt_control_get_mouse_over_id() #7
  %3 = getelementptr inbounds nuw i8, ptr %0, i64 12
  %4 = load i32, ptr %3, align 4, !tbaa !70
  %.not = icmp eq i32 %4, 0
  br i1 %.not, label %.critedge, label %5

5:                                                ; preds = %1
  %6 = getelementptr inbounds nuw i8, ptr %0, i64 16
  %7 = load i32, ptr %6, align 8, !tbaa !95
  %8 = icmp eq i32 %7, %2
  br i1 %8, label %9, label %.critedge

9:                                                ; preds = %5
  %10 = getelementptr inbounds nuw i8, ptr %0, i64 20
  %11 = load i32, ptr %10, align 4, !tbaa !72
  %12 = load ptr, ptr getelementptr inbounds nuw (i8, ptr @darktable, i64 104), align 8, !tbaa !15
  %13 = load ptr, ptr %12, align 8, !tbaa !52
  %14 = tail call ptr @dt_ui_thumbtable(ptr noundef %13) #7
  %15 = getelementptr inbounds nuw i8, ptr %14, i64 132
  %16 = load i32, ptr %15, align 4, !tbaa !58
  %17 = icmp eq i32 %11, %16
  br i1 %17, label %18, label %.critedge

18:                                               ; preds = %9
  %19 = getelementptr inbounds nuw i8, ptr %0, i64 24
  %20 = load ptr, ptr %19, align 8, !tbaa !98
  %21 = load ptr, ptr getelementptr inbounds nuw (i8, ptr @darktable, i64 80), align 8, !tbaa !74
  %22 = getelementptr inbounds nuw i8, ptr %21, i64 16
  %23 = load ptr, ptr %22, align 8, !tbaa !75
  %24 = icmp ne ptr %20, null
  %25 = icmp ne ptr %23, null
  %26 = and i1 %24, %25
  br i1 %26, label %.lr.ph.i, label %dt_slist_length_equal.exit

.lr.ph.i:                                         ; preds = %18, %.lr.ph.i
  %.011.i = phi ptr [ %30, %.lr.ph.i ], [ %23, %18 ]
  %.0810.i = phi ptr [ %28, %.lr.ph.i ], [ %20, %18 ]
  %27 = getelementptr inbounds nuw i8, ptr %.0810.i, i64 8
  %28 = load ptr, ptr %27, align 8, !tbaa !94
  %29 = getelementptr inbounds nuw i8, ptr %.011.i, i64 8
  %30 = load ptr, ptr %29, align 8, !tbaa !94
  %31 = icmp ne ptr %28, null
  %32 = icmp ne ptr %30, null
  %33 = select i1 %31, i1 %32, i1 false
  br i1 %33, label %.lr.ph.i, label %dt_slist_length_equal.exit

dt_slist_length_equal.exit:                       ; preds = %.lr.ph.i, %18
  %.lcssa9.i = phi i1 [ %24, %18 ], [ %31, %.lr.ph.i ]
  %.lcssa.i = phi i1 [ %25, %18 ], [ %32, %.lr.ph.i ]
  %34 = select i1 %.lcssa9.i, i1 true, i1 %.lcssa.i
  br i1 %34, label %.critedge, label %35

35:                                               ; preds = %dt_slist_length_equal.exit
  %36 = load ptr, ptr getelementptr inbounds nuw (i8, ptr @darktable, i64 104), align 8, !tbaa !15
  %37 = load ptr, ptr %36, align 8, !tbaa !52
  %38 = tail call ptr @dt_ui_thumbtable(ptr noundef %37) #7
  %39 = getelementptr inbounds nuw i8, ptr %38, i64 132
  %40 = load i32, ptr %39, align 4, !tbaa !58
  %.not24 = icmp eq i32 %40, 0
  br i1 %.not24, label %41, label %.critedge

41:                                               ; preds = %35
  %42 = load ptr, ptr %19, align 8, !tbaa !98
  %.not25 = icmp eq ptr %42, null
  br i1 %.not25, label %.critedge, label %43

43:                                               ; preds = %41
  %44 = load ptr, ptr getelementptr inbounds nuw (i8, ptr @darktable, i64 80), align 8, !tbaa !74
  %45 = getelementptr inbounds nuw i8, ptr %44, i64 16
  %.01731 = load ptr, ptr %45, align 8, !tbaa !102
  %.not36 = icmp eq ptr %.01731, null
  br i1 %.not36, label %.critedge, label %.lr.ph

.lr.ph:                                           ; preds = %43, %52
  %.01733 = phi ptr [ %.017, %52 ], [ %.01731, %43 ]
  %.01832 = phi ptr [ %55, %52 ], [ %42, %43 ]
  %46 = load ptr, ptr %.01832, align 8, !tbaa !92
  %47 = ptrtoint ptr %46 to i64
  %48 = trunc i64 %47 to i32
  %49 = load ptr, ptr %.01733, align 8, !tbaa !92
  %50 = ptrtoint ptr %49 to i64
  %51 = trunc i64 %50 to i32
  %.not26 = icmp eq i32 %48, %51
  br i1 %.not26, label %52, label %.critedge

52:                                               ; preds = %.lr.ph
  %53 = getelementptr inbounds nuw i8, ptr %.01733, i64 8
  %54 = getelementptr inbounds nuw i8, ptr %.01832, i64 8
  %55 = load ptr, ptr %54, align 8, !tbaa !94
  %.017 = load ptr, ptr %53, align 8, !tbaa !102
  %56 = icmp ne ptr %55, null
  %57 = icmp ne ptr %.017, null
  %58 = select i1 %56, i1 %57, i1 false
  br i1 %58, label %.lr.ph, label %.critedge

.critedge:                                        ; preds = %52, %.lr.ph, %43, %1, %5, %9, %dt_slist_length_equal.exit, %35, %41
  %.121 = phi i32 [ 1, %41 ], [ 1, %35 ], [ 0, %dt_slist_length_equal.exit ], [ 0, %9 ], [ 0, %5 ], [ 0, %1 ], [ 1, %43 ], [ 1, %52 ], [ 0, %.lr.ph ]
  ret i32 %.121
}